target datalayout = "e-m:e-p270:32:32-p271:32:32-p272:64:64-i64:64-i128:128-f80:128-n8:16:32:64-S128"
target triple = "x86_64-pc-linux-gnu"

%struct.H5C_class_t = type { i32, ptr, i32, i32, ptr, ptr, ptr, ptr, ptr, ptr, ptr, ptr, ptr, ptr }
%struct.H5HL_t = type { i64, i64, i64, i64, i8, ptr, ptr, i64, i64, i64, ptr, i64, i64, ptr }
%struct.H5HL_cache_prfx_ud_t = type { i64, i64, i64, i64 }
%struct.H5HL_prfx_t = type { %struct.H5C_cache_entry_t, ptr }
%struct.H5C_cache_entry_t = type { ptr, i64, i64, ptr, i8, ptr, i8, i8, i8, i8, i32, i8, i8, i8, i8, i8, i32, ptr, i32, i32, i32, i32, i32, i8, i8, ptr, ptr, ptr, ptr, ptr, ptr, i8, i32, i8, i64, ptr, i64, i64, i32, i8, i32, i32, i8, ptr, ptr, ptr }

@H5HL_init_g = global i8 0, align 1
@H5_libterm_g = external global i8, align 1
@.str.2 = private unnamed_addr constant [98 x i8] c"generated/home/dtcxzyw/WorkSpace/Projects/compilers/llvm-opt-benchmark/bench/hdf5/hdf5/src/H5HL.c\00", align 1
@H5E_HEAP_g = external global i64, align 8
@H5AC_LHEAP_PRFX = external constant [1 x %struct.H5C_class_t], align 16
@__func__.H5HL_protect = private unnamed_addr constant [13 x i8] c"H5HL_protect\00", align 1
@H5E_CANTPROTECT_g = external global i64, align 8
@.str.10 = private unnamed_addr constant [27 x i8] c"unable to load heap prefix\00", align 1
@H5AC_LHEAP_DBLK = external constant [1 x %struct.H5C_class_t], align 16
@.str.11 = private unnamed_addr constant [31 x i8] c"unable to load heap data block\00", align 1
@H5E_CANTPIN_g = external global i64, align 8
@.str.12 = private unnamed_addr constant [32 x i8] c"unable to pin local heap object\00", align 1
@H5E_CANTUNPROTECT_g = external global i64, align 8
@.str.13 = private unnamed_addr constant [36 x i8] c"unable to release local heap prefix\00", align 1
@.str.14 = private unnamed_addr constant [40 x i8] c"unable to release local heap data block\00", align 1

; Function Attrs: nounwind uwtable
define ptr @H5HL_protect(ptr noundef %0, i64 noundef %1, i32 noundef %2) #0 {
  %4 = alloca ptr, align 8
  %5 = alloca ptr, align 8
  %6 = alloca i64, align 8
  %7 = alloca i32, align 4
  %8 = alloca %struct.H5HL_cache_prfx_ud_t, align 8
  %9 = alloca ptr, align 8
  %10 = alloca ptr, align 8
  %11 = alloca ptr, align 8
  %12 = alloca ptr, align 8
  %13 = alloca i8, align 1
  %14 = alloca ptr, align 8
  %15 = alloca i32, align 4
  store ptr %0, ptr %5, align 8, !tbaa !3
  store i64 %1, ptr %6, align 8, !tbaa !8
  store i32 %2, ptr %7, align 4, !tbaa !16
  call void @llvm.lifetime.start.p0(i64 32, ptr %8) #6
  call void @llvm.lifetime.start.p0(i64 8, ptr %9) #6
  store ptr null, ptr %9, align 8, !tbaa !14
  call void @llvm.lifetime.start.p0(i64 8, ptr %10) #6
  store ptr null, ptr %10, align 8, !tbaa !39
  call void @llvm.lifetime.start.p0(i64 8, ptr %11) #6
  store ptr null, ptr %11, align 8, !tbaa !12
  call void @llvm.lifetime.start.p0(i64 8, ptr %12) #6
  store ptr null, ptr %12, align 8, !tbaa !12
  call void @llvm.lifetime.start.p0(i64 1, ptr %13) #6
  store i8 0, ptr %13, align 1, !tbaa !18
  %16 = load i8, ptr @H5HL_init_g, align 1, !tbaa !18, !range !20, !noundef !21
  %17 = trunc i8 %16 to i1
  br i1 %17, label %22, label %18

18:                                               ; preds = %3
  %19 = load i8, ptr @H5_libterm_g, align 1, !tbaa !18, !range !20, !noundef !21
  %20 = trunc i8 %19 to i1
  %21 = xor i1 %20, true
  br label %22

22:                                               ; preds = %18, %3
  %23 = phi i1 [ false, %3 ], [ %21, %18 ]
  %24 = xor i1 %23, true
  %25 = xor i1 %24, true
  %26 = zext i1 %25 to i32
  %27 = sext i32 %26 to i64
  %28 = call i64 @llvm.expect.i64(i64 %27, i64 0)
  %29 = icmp ne i64 %28, 0
  br i1 %29, label %30, label %31

30:                                               ; preds = %22
  store i8 1, ptr @H5HL_init_g, align 1, !tbaa !18
  br label %31

31:                                               ; preds = %30, %22
  %32 = load i8, ptr @H5HL_init_g, align 1, !tbaa !18, !range !20, !noundef !21
  %33 = trunc i8 %32 to i1
  br i1 %33, label %38, label %34

34:                                               ; preds = %31
  %35 = load i8, ptr @H5_libterm_g, align 1, !tbaa !18, !range !20, !noundef !21
  %36 = trunc i8 %35 to i1
  %37 = xor i1 %36, true
  br label %38

38:                                               ; preds = %34, %31
  %39 = phi i1 [ true, %31 ], [ %37, %34 ]
  %40 = xor i1 %39, true
  %41 = xor i1 %40, true
  %42 = zext i1 %41 to i32
  %43 = sext i32 %42 to i64
  %44 = call i64 @llvm.expect.i64(i64 %43, i64 1)
  %45 = icmp ne i64 %44, 0
  br i1 %45, label %46, label %236

46:                                               ; preds = %38
  %47 = load ptr, ptr %5, align 8, !tbaa !3
  %48 = call zeroext i8 @H5F_sizeof_size(ptr noundef %47)
  %49 = zext i8 %48 to i64
  %50 = getelementptr inbounds nuw %struct.H5HL_cache_prfx_ud_t, ptr %8, i32 0, i32 0
  store i64 %49, ptr %50, align 8, !tbaa !40
  %51 = load ptr, ptr %5, align 8, !tbaa !3
  %52 = call zeroext i8 @H5F_sizeof_addr(ptr noundef %51)
  %53 = zext i8 %52 to i64
  %54 = getelementptr inbounds nuw %struct.H5HL_cache_prfx_ud_t, ptr %8, i32 0, i32 1
  store i64 %53, ptr %54, align 8, !tbaa !42
  %55 = load i64, ptr %6, align 8, !tbaa !8
  %56 = getelementptr inbounds nuw %struct.H5HL_cache_prfx_ud_t, ptr %8, i32 0, i32 2
  store i64 %55, ptr %56, align 8, !tbaa !43
  %57 = load ptr, ptr %5, align 8, !tbaa !3
  %58 = call zeroext i8 @H5F_sizeof_size(ptr noundef %57)
  %59 = zext i8 %58 to i32
  %60 = add i32 8, %59
  %61 = load ptr, ptr %5, align 8, !tbaa !3
  %62 = call zeroext i8 @H5F_sizeof_size(ptr noundef %61)
  %63 = zext i8 %62 to i32
  %64 = add i32 %60, %63
  %65 = load ptr, ptr %5, align 8, !tbaa !3
  %66 = call zeroext i8 @H5F_sizeof_addr(ptr noundef %65)
  %67 = zext i8 %66 to i32
  %68 = add i32 %64, %67
  %69 = add i32 %68, 7
  %70 = and i32 %69, -8
  %71 = zext i32 %70 to i64
  %72 = getelementptr inbounds nuw %struct.H5HL_cache_prfx_ud_t, ptr %8, i32 0, i32 3
  store i64 %71, ptr %72, align 8, !tbaa !44
  %73 = load ptr, ptr %5, align 8, !tbaa !3
  %74 = load i64, ptr %6, align 8, !tbaa !8
  %75 = load i32, ptr %7, align 4, !tbaa !16
  %76 = call ptr @H5AC_protect(ptr noundef %73, ptr noundef @H5AC_LHEAP_PRFX, i64 noundef %74, ptr noundef %8, i32 noundef %75)
  store ptr %76, ptr %9, align 8, !tbaa !14
  %77 = icmp eq ptr null, %76
  br i1 %77, label %78, label %97

78:                                               ; preds = %46
  br label %79

79:                                               ; preds = %78
  br label %80

80:                                               ; preds = %79
  br label %81

81:                                               ; preds = %80
  %82 = load i64, ptr @H5E_HEAP_g, align 8, !tbaa !8
  %83 = load i64, ptr @H5E_CANTPROTECT_g, align 8, !tbaa !8
  %84 = call i32 (ptr, ptr, i32, i64, i64, ptr, ...) @H5E_printf_stack(ptr noundef @.str.2, ptr noundef @__func__.H5HL_protect, i32 noundef 324, i64 noundef %82, i64 noundef %83, ptr noundef @.str.10)
  br label %85

85:                                               ; preds = %81
  br label %86

86:                                               ; preds = %85
  store i8 1, ptr %13, align 1, !tbaa !18
  %87 = load i8, ptr %13, align 1, !tbaa !18, !range !20, !noundef !21
  %88 = trunc i8 %87 to i1
  %89 = zext i1 %88 to i8
  store i8 %89, ptr %13, align 1, !tbaa !18
  br label %90

90:                                               ; preds = %86
  br label %91

91:                                               ; preds = %90
  br label %92

92:                                               ; preds = %91
  store ptr null, ptr %12, align 8, !tbaa !12
  br label %175

93:                                               ; No predecessors!
  br label %94

94:                                               ; preds = %93
  br label %95

95:                                               ; preds = %94
  br label %96

96:                                               ; preds = %95
  br label %97

97:                                               ; preds = %96, %46
  %98 = load ptr, ptr %9, align 8, !tbaa !14
  %99 = getelementptr inbounds nuw %struct.H5HL_prfx_t, ptr %98, i32 0, i32 1
  %100 = load ptr, ptr %99, align 8, !tbaa !45
  store ptr %100, ptr %11, align 8, !tbaa !12
  %101 = load ptr, ptr %11, align 8, !tbaa !12
  %102 = getelementptr inbounds nuw %struct.H5HL_t, ptr %101, i32 0, i32 1
  %103 = load i64, ptr %102, align 8, !tbaa !53
  %104 = icmp eq i64 %103, 0
  br i1 %104, label %105, label %169

105:                                              ; preds = %97
  call void @llvm.lifetime.start.p0(i64 8, ptr %14) #6
  %106 = load ptr, ptr %11, align 8, !tbaa !12
  %107 = getelementptr inbounds nuw %struct.H5HL_t, ptr %106, i32 0, i32 4
  %108 = load i8, ptr %107, align 8, !tbaa !28, !range !20, !noundef !21
  %109 = trunc i8 %108 to i1
  br i1 %109, label %110, label %112

110:                                              ; preds = %105
  %111 = load ptr, ptr %9, align 8, !tbaa !14
  store ptr %111, ptr %14, align 8, !tbaa !54
  br label %142

112:                                              ; preds = %105
  %113 = load ptr, ptr %5, align 8, !tbaa !3
  %114 = load ptr, ptr %11, align 8, !tbaa !12
  %115 = getelementptr inbounds nuw %struct.H5HL_t, ptr %114, i32 0, i32 11
  %116 = load i64, ptr %115, align 8, !tbaa !29
  %117 = load ptr, ptr %11, align 8, !tbaa !12
  %118 = load i32, ptr %7, align 4, !tbaa !16
  %119 = call ptr @H5AC_protect(ptr noundef %113, ptr noundef @H5AC_LHEAP_DBLK, i64 noundef %116, ptr noundef %117, i32 noundef %118)
  store ptr %119, ptr %10, align 8, !tbaa !39
  %120 = icmp eq ptr null, %119
  br i1 %120, label %121, label %140

121:                                              ; preds = %112
  br label %122

122:                                              ; preds = %121
  br label %123

123:                                              ; preds = %122
  br label %124

124:                                              ; preds = %123
  %125 = load i64, ptr @H5E_HEAP_g, align 8, !tbaa !8
  %126 = load i64, ptr @H5E_CANTPROTECT_g, align 8, !tbaa !8
  %127 = call i32 (ptr, ptr, i32, i64, i64, ptr, ...) @H5E_printf_stack(ptr noundef @.str.2, ptr noundef @__func__.H5HL_protect, i32 noundef 342, i64 noundef %125, i64 noundef %126, ptr noundef @.str.11)
  br label %128

128:                                              ; preds = %124
  br label %129

129:                                              ; preds = %128
  store i8 1, ptr %13, align 1, !tbaa !18
  %130 = load i8, ptr %13, align 1, !tbaa !18, !range !20, !noundef !21
  %131 = trunc i8 %130 to i1
  %132 = zext i1 %131 to i8
  store i8 %132, ptr %13, align 1, !tbaa !18
  br label %133

133:                                              ; preds = %129
  br label %134

134:                                              ; preds = %133
  br label %135

135:                                              ; preds = %134
  store ptr null, ptr %12, align 8, !tbaa !12
  store i32 10, ptr %15, align 4
  br label %166

136:                                              ; No predecessors!
  br label %137

137:                                              ; preds = %136
  br label %138

138:                                              ; preds = %137
  br label %139

139:                                              ; preds = %138
  br label %140

140:                                              ; preds = %139, %112
  %141 = load ptr, ptr %10, align 8, !tbaa !39
  store ptr %141, ptr %14, align 8, !tbaa !54
  br label %142

142:                                              ; preds = %140, %110
  %143 = load ptr, ptr %14, align 8, !tbaa !54
  %144 = call i32 @H5AC_pin_protected_entry(ptr noundef %143)
  %145 = icmp slt i32 %144, 0
  br i1 %145, label %146, label %165

146:                                              ; preds = %142
  br label %147

147:                                              ; preds = %146
  br label %148

148:                                              ; preds = %147
  br label %149

149:                                              ; preds = %148
  %150 = load i64, ptr @H5E_HEAP_g, align 8, !tbaa !8
  %151 = load i64, ptr @H5E_CANTPIN_g, align 8, !tbaa !8
  %152 = call i32 (ptr, ptr, i32, i64, i64, ptr, ...) @H5E_printf_stack(ptr noundef @.str.2, ptr noundef @__func__.H5HL_protect, i32 noundef 350, i64 noundef %150, i64 noundef %151, ptr noundef @.str.12)
  br label %153

153:                                              ; preds = %149
  br label %154

154:                                              ; preds = %153
  store i8 1, ptr %13, align 1, !tbaa !18
  %155 = load i8, ptr %13, align 1, !tbaa !18, !range !20, !noundef !21
  %156 = trunc i8 %155 to i1
  %157 = zext i1 %156 to i8
  store i8 %157, ptr %13, align 1, !tbaa !18
  br label %158

158:                                              ; preds = %154
  br label %159

159:                                              ; preds = %158
  br label %160

160:                                              ; preds = %159
  store ptr null, ptr %12, align 8, !tbaa !12
  store i32 10, ptr %15, align 4
  br label %166

161:                                              ; No predecessors!
  br label %162

162:                                              ; preds = %161
  br label %163

163:                                              ; preds = %162
  br label %164

164:                                              ; preds = %163
  br label %165

165:                                              ; preds = %164, %142
  store i32 0, ptr %15, align 4
  br label %166

166:                                              ; preds = %160, %135, %165
  call void @llvm.lifetime.end.p0(i64 8, ptr %14) #6
  %167 = load i32, ptr %15, align 4
  switch i32 %167, label %238 [
    i32 0, label %168
    i32 10, label %175
  ]

168:                                              ; preds = %166
  br label %169

169:                                              ; preds = %168, %97
  %170 = load ptr, ptr %11, align 8, !tbaa !12
  %171 = getelementptr inbounds nuw %struct.H5HL_t, ptr %170, i32 0, i32 1
  %172 = load i64, ptr %171, align 8, !tbaa !53
  %173 = add i64 %172, 1
  store i64 %173, ptr %171, align 8, !tbaa !53
  %174 = load ptr, ptr %11, align 8, !tbaa !12
  store ptr %174, ptr %12, align 8, !tbaa !12
  br label %175

175:                                              ; preds = %169, %166, %92
  %176 = load ptr, ptr %9, align 8, !tbaa !14
  %177 = icmp ne ptr %176, null
  br i1 %177, label %178, label %205

178:                                              ; preds = %175
  %179 = load ptr, ptr %11, align 8, !tbaa !12
  %180 = icmp ne ptr %179, null
  br i1 %180, label %181, label %205

181:                                              ; preds = %178
  %182 = load ptr, ptr %5, align 8, !tbaa !3
  %183 = load ptr, ptr %11, align 8, !tbaa !12
  %184 = getelementptr inbounds nuw %struct.H5HL_t, ptr %183, i32 0, i32 7
  %185 = load i64, ptr %184, align 8, !tbaa !27
  %186 = load ptr, ptr %9, align 8, !tbaa !14
  %187 = call i32 @H5AC_unprotect(ptr noundef %182, ptr noundef @H5AC_LHEAP_PRFX, i64 noundef %185, ptr noundef %186, i32 noundef 0)
  %188 = icmp slt i32 %187, 0
  br i1 %188, label %189, label %205

189:                                              ; preds = %181
  br label %190

190:                                              ; preds = %189
  br label %191

191:                                              ; preds = %190
  br label %192

192:                                              ; preds = %191
  %193 = load i64, ptr @H5E_HEAP_g, align 8, !tbaa !8
  %194 = load i64, ptr @H5E_CANTUNPROTECT_g, align 8, !tbaa !8
  %195 = call i32 (ptr, ptr, i32, i64, i64, ptr, ...) @H5E_printf_stack(ptr noundef @.str.2, ptr noundef @__func__.H5HL_protect, i32 noundef 362, i64 noundef %193, i64 noundef %194, ptr noundef @.str.13)
  br label %196

196:                                              ; preds = %192
  br label %197

197:                                              ; preds = %196
  store i8 1, ptr %13, align 1, !tbaa !18
  %198 = load i8, ptr %13, align 1, !tbaa !18, !range !20, !noundef !21
  %199 = trunc i8 %198 to i1
  %200 = zext i1 %199 to i8
  store i8 %200, ptr %13, align 1, !tbaa !18
  br label %201

201:                                              ; preds = %197
  br label %202

202:                                              ; preds = %201
  store ptr null, ptr %12, align 8, !tbaa !12
  br label %203

203:                                              ; preds = %202
  br label %204

204:                                              ; preds = %203
  br label %205

205:                                              ; preds = %204, %181, %178, %175
  %206 = load ptr, ptr %10, align 8, !tbaa !39
  %207 = icmp ne ptr %206, null
  br i1 %207, label %208, label %235

208:                                              ; preds = %205
  %209 = load ptr, ptr %11, align 8, !tbaa !12
  %210 = icmp ne ptr %209, null
  br i1 %210, label %211, label %235

211:                                              ; preds = %208
  %212 = load ptr, ptr %5, align 8, !tbaa !3
  %213 = load ptr, ptr %11, align 8, !tbaa !12
  %214 = getelementptr inbounds nuw %struct.H5HL_t, ptr %213, i32 0, i32 11
  %215 = load i64, ptr %214, align 8, !tbaa !29
  %216 = load ptr, ptr %10, align 8, !tbaa !39
  %217 = call i32 @H5AC_unprotect(ptr noundef %212, ptr noundef @H5AC_LHEAP_DBLK, i64 noundef %215, ptr noundef %216, i32 noundef 0)
  %218 = icmp slt i32 %217, 0
  br i1 %218, label %219, label %235

219:                                              ; preds = %211
  br label %220

220:                                              ; preds = %219
  br label %221

221:                                              ; preds = %220
  br label %222

222:                                              ; preds = %221
  %223 = load i64, ptr @H5E_HEAP_g, align 8, !tbaa !8
  %224 = load i64, ptr @H5E_CANTUNPROTECT_g, align 8, !tbaa !8
  %225 = call i32 (ptr, ptr, i32, i64, i64, ptr, ...) @H5E_printf_stack(ptr noundef @.str.2, ptr noundef @__func__.H5HL_protect, i32 noundef 366, i64 noundef %223, i64 noundef %224, ptr noundef @.str.14)
  br label %226

226:                                              ; preds = %222
  br label %227

227:                                              ; preds = %226
  store i8 1, ptr %13, align 1, !tbaa !18
  %228 = load i8, ptr %13, align 1, !tbaa !18, !range !20, !noundef !21
  %229 = trunc i8 %228 to i1
  %230 = zext i1 %229 to i8
  store i8 %230, ptr %13, align 1, !tbaa !18
  br label %231

231:                                              ; preds = %227
  br label %232

232:                                              ; preds = %231
  store ptr null, ptr %12, align 8, !tbaa !12
  br label %233

233:                                              ; preds = %232
  br label %234

234:                                              ; preds = %233
  br label %235

235:                                              ; preds = %234, %211, %208, %205
  br label %236

236:                                              ; preds = %235, %38
  %237 = load ptr, ptr %12, align 8, !tbaa !12
  store ptr %237, ptr %4, align 8
  store i32 1, ptr %15, align 4
  br label %238

238:                                              ; preds = %236, %166
  call void @llvm.lifetime.end.p0(i64 1, ptr %13) #6
  call void @llvm.lifetime.end.p0(i64 8, ptr %12) #6
  call void @llvm.lifetime.end.p0(i64 8, ptr %11) #6
  call void @llvm.lifetime.end.p0(i64 8, ptr %10) #6
  call void @llvm.lifetime.end.p0(i64 8, ptr %9) #6
  call void @llvm.lifetime.end.p0(i64 32, ptr %8) #6
  %239 = load ptr, ptr %4, align 8
  ret ptr %239
}