; Function Attrs: nounwind uwtable
define ptr @H5HL_protect(ptr noundef %0, i64 noundef %1, i32 noundef %2) local_unnamed_addr #0 {
  %4 = alloca %struct.H5HL_cache_prfx_ud_t, align 8
  call void @llvm.lifetime.start.p0(i64 32, ptr nonnull %4) #7
  %5 = load i8, ptr @H5HL_init_g, align 1, !tbaa !3, !range !7, !noundef !8
  %6 = trunc nuw i8 %5 to i1
  %7 = load i8, ptr @H5_libterm_g, align 1, !range !7
  %8 = trunc nuw i8 %7 to i1
  %9 = select i1 %6, i1 true, i1 %8
  br i1 %9, label %10, label %.thread, !prof !9

.thread:                                          ; preds = %3
  store i8 1, ptr @H5HL_init_g, align 1, !tbaa !3
  br label %13

10:                                               ; preds = %3
  %11 = xor i1 %8, true
  %12 = select i1 %6, i1 true, i1 %11
  br i1 %12, label %13, label %83, !prof !10

13:                                               ; preds = %.thread, %10
  %14 = tail call zeroext i8 @H5F_sizeof_size(ptr noundef %0) #7
  %15 = zext i8 %14 to i64
  store i64 %15, ptr %4, align 8, !tbaa !30
  %16 = tail call zeroext i8 @H5F_sizeof_addr(ptr noundef %0) #7
  %17 = zext i8 %16 to i64
  %18 = getelementptr inbounds nuw i8, ptr %4, i64 8
  store i64 %17, ptr %18, align 8, !tbaa !32
  %19 = getelementptr inbounds nuw i8, ptr %4, i64 16
  store i64 %1, ptr %19, align 8, !tbaa !33
  %20 = tail call zeroext i8 @H5F_sizeof_size(ptr noundef %0) #7
  %21 = zext i8 %20 to i64
  %22 = tail call zeroext i8 @H5F_sizeof_size(ptr noundef %0) #7
  %23 = zext i8 %22 to i64
  %24 = tail call zeroext i8 @H5F_sizeof_addr(ptr noundef %0) #7
  %25 = zext i8 %24 to i64
  %26 = add nuw nsw i64 %21, 15
  %27 = add nuw nsw i64 %26, %23
  %28 = add nuw nsw i64 %27, %25
  %29 = and i64 %28, 2040
  %30 = getelementptr inbounds nuw i8, ptr %4, i64 24
  store i64 %29, ptr %30, align 8, !tbaa !34
  %31 = call ptr @H5AC_protect(ptr noundef %0, ptr noundef nonnull @H5AC_LHEAP_PRFX, i64 noundef %1, ptr noundef nonnull %4, i32 noundef %2) #7
  %32 = icmp eq ptr %31, null
  br i1 %32, label %.thread63, label %36

.thread63:                                        ; preds = %13
  %33 = load i64, ptr @H5E_HEAP_g, align 8, !tbaa !20
  %34 = load i64, ptr @H5E_CANTPROTECT_g, align 8, !tbaa !20
  %35 = call i32 (ptr, ptr, i32, i64, i64, ptr, ...) @H5E_printf_stack(ptr noundef nonnull @.str.2, ptr noundef nonnull @__func__.H5HL_protect, i32 noundef 324, i64 noundef %33, i64 noundef %34, ptr noundef nonnull @.str.10) #7
  br label %83

36:                                               ; preds = %13
  %37 = getelementptr inbounds nuw i8, ptr %31, i64 248
  %38 = load ptr, ptr %37, align 8, !tbaa !35
  %39 = getelementptr inbounds nuw i8, ptr %38, i64 8
  %40 = load i64, ptr %39, align 8, !tbaa !46
  %41 = icmp eq i64 %40, 0
  br i1 %41, label %42, label %62

42:                                               ; preds = %36
  %43 = getelementptr inbounds nuw i8, ptr %38, i64 32
  %44 = load i8, ptr %43, align 8, !tbaa !21, !range !7, !noundef !8
  %45 = trunc nuw i8 %44 to i1
  br i1 %45, label %55, label %46

46:                                               ; preds = %42
  %47 = getelementptr inbounds nuw i8, ptr %38, i64 88
  %48 = load i64, ptr %47, align 8, !tbaa !22
  %49 = call ptr @H5AC_protect(ptr noundef %0, ptr noundef nonnull @H5AC_LHEAP_DBLK, i64 noundef %48, ptr noundef nonnull %38, i32 noundef %2) #7
  %50 = icmp eq ptr %49, null
  br i1 %50, label %51, label %55

51:                                               ; preds = %46
  %52 = load i64, ptr @H5E_HEAP_g, align 8, !tbaa !20
  %53 = load i64, ptr @H5E_CANTPROTECT_g, align 8, !tbaa !20
  %54 = call i32 (ptr, ptr, i32, i64, i64, ptr, ...) @H5E_printf_stack(ptr noundef nonnull @.str.2, ptr noundef nonnull @__func__.H5HL_protect, i32 noundef 342, i64 noundef %52, i64 noundef %53, ptr noundef nonnull @.str.11) #7
  br label %.thread53

55:                                               ; preds = %46, %42
  %.246 = phi ptr [ null, %42 ], [ %49, %46 ]
  %.041 = phi ptr [ %31, %42 ], [ %49, %46 ]
  %56 = call i32 @H5AC_pin_protected_entry(ptr noundef nonnull %.041) #7
  %57 = icmp slt i32 %56, 0
  br i1 %57, label %58, label %._crit_edge

._crit_edge:                                      ; preds = %55
  %.pre = load i64, ptr %39, align 8, !tbaa !46
  br label %62

58:                                               ; preds = %55
  %59 = load i64, ptr @H5E_HEAP_g, align 8, !tbaa !20
  %60 = load i64, ptr @H5E_CANTPIN_g, align 8, !tbaa !20
  %61 = call i32 (ptr, ptr, i32, i64, i64, ptr, ...) @H5E_printf_stack(ptr noundef nonnull @.str.2, ptr noundef nonnull @__func__.H5HL_protect, i32 noundef 350, i64 noundef %59, i64 noundef %60, ptr noundef nonnull @.str.12) #7
  br label %.thread53

62:                                               ; preds = %._crit_edge, %36
  %63 = phi i64 [ %40, %36 ], [ %.pre, %._crit_edge ]
  %.145 = phi ptr [ null, %36 ], [ %.246, %._crit_edge ]
  %64 = add i64 %63, 1
  store i64 %64, ptr %39, align 8, !tbaa !46
  br label %.thread53

.thread53:                                        ; preds = %62, %58, %51
  %.044 = phi ptr [ %.145, %62 ], [ null, %51 ], [ %.246, %58 ]
  %.1 = phi ptr [ %38, %62 ], [ null, %51 ], [ null, %58 ]
  %65 = getelementptr inbounds nuw i8, ptr %38, i64 56
  %66 = load i64, ptr %65, align 8, !tbaa !19
  %67 = call i32 @H5AC_unprotect(ptr noundef %0, ptr noundef nonnull @H5AC_LHEAP_PRFX, i64 noundef %66, ptr noundef nonnull %31, i32 noundef 0) #7
  %68 = icmp slt i32 %67, 0
  br i1 %68, label %69, label %73

69:                                               ; preds = %.thread53
  %70 = load i64, ptr @H5E_HEAP_g, align 8, !tbaa !20
  %71 = load i64, ptr @H5E_CANTUNPROTECT_g, align 8, !tbaa !20
  %72 = call i32 (ptr, ptr, i32, i64, i64, ptr, ...) @H5E_printf_stack(ptr noundef nonnull @.str.2, ptr noundef nonnull @__func__.H5HL_protect, i32 noundef 362, i64 noundef %70, i64 noundef %71, ptr noundef nonnull @.str.13) #7
  br label %73

73:                                               ; preds = %69, %.thread53
  %.3 = phi ptr [ null, %69 ], [ %.1, %.thread53 ]
  %.not = icmp eq ptr %.044, null
  br i1 %.not, label %83, label %74

74:                                               ; preds = %73
  %75 = getelementptr inbounds nuw i8, ptr %38, i64 88
  %76 = load i64, ptr %75, align 8, !tbaa !22
  %77 = call i32 @H5AC_unprotect(ptr noundef %0, ptr noundef nonnull @H5AC_LHEAP_DBLK, i64 noundef %76, ptr noundef nonnull %.044, i32 noundef 0) #7
  %78 = icmp slt i32 %77, 0
  br i1 %78, label %79, label %83

79:                                               ; preds = %74
  %80 = load i64, ptr @H5E_HEAP_g, align 8, !tbaa !20
  %81 = load i64, ptr @H5E_CANTUNPROTECT_g, align 8, !tbaa !20
  %82 = call i32 (ptr, ptr, i32, i64, i64, ptr, ...) @H5E_printf_stack(ptr noundef nonnull @.str.2, ptr noundef nonnull @__func__.H5HL_protect, i32 noundef 366, i64 noundef %80, i64 noundef %81, ptr noundef nonnull @.str.14) #7
  br label %83

83:                                               ; preds = %.thread63, %10, %79, %74, %73
  %.048 = phi ptr [ null, %79 ], [ %.3, %74 ], [ %.3, %73 ], [ null, %10 ], [ null, %.thread63 ]
  call void @llvm.lifetime.end.p0(i64 32, ptr nonnull %4) #7
  ret ptr %.048
}